; Function Attrs: mustprogress uwtable
define void @_ZN6icu_7512TimeZoneRuleC2ERKNS_13UnicodeStringEii(ptr noundef nonnull align 8 dereferenceable(80) %this, ptr noundef nonnull align 8 dereferenceable(64) %name, i32 noundef %rawOffset, i32 noundef %dstSavings) unnamed_addr #0 align 2 personality ptr @__gxx_personality_v0 {
entry:
  store ptr getelementptr inbounds ({ [13 x ptr] }, ptr @_ZTVN6icu_7512TimeZoneRuleE, i64 0, i32 0, i64 2), ptr %this, align 8
  %fName = getelementptr inbounds i8, ptr %this, i64 8
  invoke void @_ZN6icu_7513UnicodeStringC1ERKS0_(ptr noundef nonnull align 8 dereferenceable(64) %fName, ptr noundef nonnull align 8 dereferenceable(64) %name)
          to label %invoke.cont unwind label %lpad

invoke.cont:                                      ; preds = %entry
  %fRawOffset = getelementptr inbounds i8, ptr %this, i64 72
  store i32 %rawOffset, ptr %fRawOffset, align 8
  %fDSTSavings = getelementptr inbounds i8, ptr %this, i64 76
  store i32 %dstSavings, ptr %fDSTSavings, align 4
  ret void

lpad:                                             ; preds = %entry
  %0 = landingpad { ptr, i32 }
          cleanup
  tail call void @_ZN6icu_757UObjectD2Ev(ptr noundef nonnull align 8 dereferenceable(8) %this) #16
  resume { ptr, i32 } %0
}